target datalayout = "e-m:e-p270:32:32-p271:32:32-p272:64:64-i64:64-i128:128-f80:128-n8:16:32:64-S128"
target triple = "x86_64-pc-linux-gnu"

%struct.UFILE = type { ptr, ptr, ptr, %struct.u_localized_string, [1024 x i16], i8, i32 }
%struct.u_localized_string = type { ptr, ptr, ptr, %struct.ULocaleBundle }
%struct.ULocaleBundle = type { ptr, [5 x ptr], i8 }

; Function Attrs: mustprogress nounwind uwtable
define i32 @u_fungetc_77(i32 noundef %0, ptr noundef %1) #7 {
  %3 = alloca i32, align 4
  %4 = alloca ptr, align 8
  %5 = alloca ptr, align 8
  store i32 %0, ptr %3, align 4, !tbaa !31
  store ptr %1, ptr %4, align 8, !tbaa !3
  call void @llvm.lifetime.start.p0(i64 8, ptr %5) #10
  %6 = load ptr, ptr %4, align 8, !tbaa !3
  %7 = getelementptr inbounds nuw %struct.UFILE, ptr %6, i32 0, i32 3
  store ptr %7, ptr %5, align 8, !tbaa !49
  %8 = load ptr, ptr %5, align 8, !tbaa !49
  %9 = getelementptr inbounds nuw %struct.u_localized_string, ptr %8, i32 0, i32 0
  %10 = load ptr, ptr %9, align 8, !tbaa !52
  %11 = load ptr, ptr %5, align 8, !tbaa !49
  %12 = getelementptr inbounds nuw %struct.u_localized_string, ptr %11, i32 0, i32 2
  %13 = load ptr, ptr %12, align 8, !tbaa !54
  %14 = icmp eq ptr %10, %13
  br i1 %14, label %28, label %15

15:                                               ; preds = %2
  %16 = load i32, ptr %3, align 4, !tbaa !31
  %17 = and i32 %16, -1024
  %18 = icmp eq i32 %17, 55296
  br i1 %18, label %19, label %29

19:                                               ; preds = %15
  %20 = load ptr, ptr %5, align 8, !tbaa !49
  %21 = getelementptr inbounds nuw %struct.u_localized_string, ptr %20, i32 0, i32 0
  %22 = load ptr, ptr %21, align 8, !tbaa !52
  %23 = getelementptr inbounds i16, ptr %22, i64 -1
  %24 = load ptr, ptr %5, align 8, !tbaa !49
  %25 = getelementptr inbounds nuw %struct.u_localized_string, ptr %24, i32 0, i32 2
  %26 = load ptr, ptr %25, align 8, !tbaa !54
  %27 = icmp eq ptr %23, %26
  br i1 %27, label %28, label %29

28:                                               ; preds = %19, %2
  store i32 65535, ptr %3, align 4, !tbaa !31
  br label %73

29:                                               ; preds = %19, %15
  %30 = load i32, ptr %3, align 4, !tbaa !31
  %31 = and i32 %30, -1024
  %32 = icmp eq i32 %31, 55296
  br i1 %32, label %33, label %61

33:                                               ; preds = %29
  %34 = load ptr, ptr %5, align 8, !tbaa !49
  %35 = getelementptr inbounds nuw %struct.u_localized_string, ptr %34, i32 0, i32 0
  %36 = load ptr, ptr %35, align 8, !tbaa !52
  %37 = getelementptr inbounds i16, ptr %36, i32 -1
  store ptr %37, ptr %35, align 8, !tbaa !52
  %38 = load i16, ptr %37, align 2, !tbaa !40
  %39 = zext i16 %38 to i32
  %40 = load i32, ptr %3, align 4, !tbaa !31
  %41 = and i32 %40, 1023
  %42 = or i32 %41, 56320
  %43 = trunc i32 %42 to i16
  %44 = zext i16 %43 to i32
  %45 = icmp ne i32 %39, %44
  br i1 %45, label %59, label %46

46:                                               ; preds = %33
  %47 = load ptr, ptr %5, align 8, !tbaa !49
  %48 = getelementptr inbounds nuw %struct.u_localized_string, ptr %47, i32 0, i32 0
  %49 = load ptr, ptr %48, align 8, !tbaa !52
  %50 = getelementptr inbounds i16, ptr %49, i32 -1
  store ptr %50, ptr %48, align 8, !tbaa !52
  %51 = load i16, ptr %50, align 2, !tbaa !40
  %52 = zext i16 %51 to i32
  %53 = load i32, ptr %3, align 4, !tbaa !31
  %54 = ashr i32 %53, 10
  %55 = add nsw i32 %54, 55232
  %56 = trunc i32 %55 to i16
  %57 = zext i16 %56 to i32
  %58 = icmp ne i32 %52, %57
  br i1 %58, label %59, label %60

59:                                               ; preds = %46, %33
  store i32 65535, ptr %3, align 4, !tbaa !31
  br label %60

60:                                               ; preds = %59, %46
  br label %72

61:                                               ; preds = %29
  %62 = load ptr, ptr %5, align 8, !tbaa !49
  %63 = getelementptr inbounds nuw %struct.u_localized_string, ptr %62, i32 0, i32 0
  %64 = load ptr, ptr %63, align 8, !tbaa !52
  %65 = getelementptr inbounds i16, ptr %64, i32 -1
  store ptr %65, ptr %63, align 8, !tbaa !52
  %66 = load i16, ptr %65, align 2, !tbaa !40
  %67 = zext i16 %66 to i32
  %68 = load i32, ptr %3, align 4, !tbaa !31
  %69 = icmp ne i32 %67, %68
  br i1 %69, label %70, label %71

70:                                               ; preds = %61
  store i32 65535, ptr %3, align 4, !tbaa !31
  br label %71

71:                                               ; preds = %70, %61
  br label %72

72:                                               ; preds = %71, %60
  br label %73

73:                                               ; preds = %72, %28
  %74 = load i32, ptr %3, align 4, !tbaa !31
  call void @llvm.lifetime.end.p0(i64 8, ptr %5) #10
  ret i32 %74
}