; Function Attrs: mustprogress nofree norecurse nosync nounwind willreturn memory(read, argmem: readwrite, inaccessiblemem: none) uwtable
define i32 @u_fungetc_77(i32 noundef %0, ptr noundef captures(none) %1) local_unnamed_addr #6 {
  %3 = getelementptr inbounds nuw i8, ptr %1, i64 24
  %4 = load ptr, ptr %3, align 8, !tbaa !41
  %5 = getelementptr inbounds nuw i8, ptr %1, i64 40
  %6 = load ptr, ptr %5, align 8, !tbaa !43
  %7 = icmp eq ptr %4, %6
  br i1 %7, label %23, label %8

8:                                                ; preds = %2
  %9 = and i32 %0, -1024
  %10 = icmp eq i32 %9, 55296
  %11 = getelementptr inbounds i8, ptr %4, i64 -2
  %12 = icmp eq ptr %11, %6
  %or.cond = select i1 %10, i1 %12, i1 false
  br i1 %or.cond, label %23, label %13

13:                                               ; preds = %8
  store ptr %11, ptr %3, align 8, !tbaa !41
  %14 = load i16, ptr %11, align 2, !tbaa !38
  %15 = zext i16 %14 to i32
  br i1 %10, label %16, label %22

16:                                               ; preds = %13
  %17 = or i32 %0, 56320
  %.not15 = icmp eq i32 %17, %15
  br i1 %.not15, label %18, label %21

18:                                               ; preds = %16
  %19 = getelementptr inbounds i8, ptr %4, i64 -4
  store ptr %19, ptr %3, align 8, !tbaa !41
  %20 = load i16, ptr %19, align 2, !tbaa !38
  %.not16 = icmp eq i16 %20, -10250
  br i1 %.not16, label %23, label %21

21:                                               ; preds = %18, %16
  br label %23

22:                                               ; preds = %13
  %.not = icmp eq i32 %0, %15
  %spec.store.select = select i1 %.not, i32 %0, i32 65535
  br label %23

23:                                               ; preds = %2, %8, %22, %21, %18
  %.0 = phi i32 [ 65535, %21 ], [ %0, %18 ], [ %spec.store.select, %22 ], [ 65535, %8 ], [ 65535, %2 ]
  ret i32 %.0
}